target datalayout = "e-m:e-p270:32:32-p271:32:32-p272:64:64-i64:64-i128:128-f80:128-n8:16:32:64-S128"
target triple = "x86_64-pc-linux-gnu"

%struct.H5MF_debug_iter_ud_t = type { ptr, ptr, i32, i32 }
%struct.H5F_t = type { ptr, ptr, ptr, ptr, i32, ptr, i8, i8, ptr, i32 }
%struct.H5F_shared_t = type { ptr, ptr, ptr, i8, i32, i32, %struct.H5F_mtab_t, ptr, i8, i8, i64, i32, i32, i64, i64, ptr, ptr, %struct.H5AC_cache_config_t, %struct.H5AC_cache_image_config_t, i8, i8, ptr, i64, i32, i8, i64, i64, double, i64, i64, i64, i32, i32, i32, i8, i32, ptr, ptr, ptr, ptr, i8, i8, i8, i64, i64, ptr, ptr, i32, i64, i8, i32, i8, i64, i8, [13 x i32], [13 x i64], [13 x ptr], i8, i64, i64, [7 x i32], [7 x i32], %struct.H5F_blk_aggr_t, %struct.H5F_blk_aggr_t, i64, i64, %struct.H5F_meta_accum_t, i32, i32, [30 x ptr], %struct.H5F_object_flush_t, i8, ptr }
%struct.H5F_mtab_t = type { i32, i32, ptr }
%struct.H5AC_cache_config_t = type { i32, i8, i8, i8, [1025 x i8], i8, i8, i64, double, i64, i64, i64, i32, double, double, i8, i64, i32, double, double, i32, double, double, i8, i64, i32, i8, double, i64, i32 }
%struct.H5AC_cache_image_config_t = type { i32, i8, i8, i32 }
%struct.H5F_blk_aggr_t = type { i64, i64, i64, i64, i64 }
%struct.H5F_meta_accum_t = type { ptr, i64, i64, i64, i64, i64, i8 }
%struct.H5F_object_flush_t = type { ptr, ptr }

@.str = private unnamed_addr constant [101 x i8] c"generated/home/dtcxzyw/WorkSpace/Projects/compilers/llvm-opt-benchmark/bench/hdf5/hdf5/src/H5MFdbg.c\00", align 1
@__func__.H5MF_sects_debug = private unnamed_addr constant [17 x i8] c"H5MF_sects_debug\00", align 1
@H5E_RESOURCE_g = external global i64, align 8
@H5E_CANTINIT_g = external global i64, align 8
@.str.1 = private unnamed_addr constant [33 x i8] c"can't initialize file free space\00", align 1
@H5E_HEAP_g = external global i64, align 8
@H5E_BADITER_g = external global i64, align 8
@.str.2 = private unnamed_addr constant [37 x i8] c"can't iterate over heap's free space\00", align 1
@H5E_CANTRELEASE_g = external global i64, align 8
@.str.3 = private unnamed_addr constant [30 x i8] c"can't release free space info\00", align 1

; Function Attrs: nounwind uwtable
define i32 @H5MF_sects_debug(ptr noundef %0, i64 noundef %1, ptr noundef %2, i32 noundef %3, i32 noundef %4) #0 {
  %6 = alloca ptr, align 8
  %7 = alloca i64, align 8
  %8 = alloca ptr, align 8
  %9 = alloca i32, align 4
  %10 = alloca i32, align 4
  %11 = alloca i32, align 4
  %12 = alloca i32, align 4
  %13 = alloca i64, align 8
  %14 = alloca i8, align 1
  %15 = alloca %struct.H5MF_debug_iter_ud_t, align 8
  store ptr %0, ptr %6, align 8
  store i64 %1, ptr %7, align 8
  store ptr %2, ptr %8, align 8
  store i32 %3, ptr %9, align 4
  store i32 %4, ptr %10, align 4
  store i32 0, ptr %12, align 4
  store i64 -1, ptr %13, align 8
  store i8 0, ptr %14, align 1
  call void @H5AC_tag(i64 noundef 4, ptr noundef %13)
  store i32 0, ptr %11, align 4
  br label %16

16:                                               ; preds = %153, %5
  %17 = load i32, ptr %11, align 4
  %18 = icmp ult i32 %17, 13
  br i1 %18, label %19, label %156

19:                                               ; preds = %16
  %20 = load ptr, ptr %6, align 8
  %21 = getelementptr inbounds %struct.H5F_t, ptr %20, i32 0, i32 2
  %22 = load ptr, ptr %21, align 8
  %23 = getelementptr inbounds %struct.H5F_shared_t, ptr %22, i32 0, i32 55
  %24 = load i32, ptr %11, align 4
  %25 = zext i32 %24 to i64
  %26 = getelementptr inbounds [13 x i64], ptr %23, i64 0, i64 %25
  %27 = load i64, ptr %26, align 8
  %28 = icmp ne i64 %27, -1
  br i1 %28, label %29, label %152

29:                                               ; preds = %19
  %30 = load ptr, ptr %6, align 8
  %31 = getelementptr inbounds %struct.H5F_t, ptr %30, i32 0, i32 2
  %32 = load ptr, ptr %31, align 8
  %33 = getelementptr inbounds %struct.H5F_shared_t, ptr %32, i32 0, i32 55
  %34 = load i32, ptr %11, align 4
  %35 = zext i32 %34 to i64
  %36 = getelementptr inbounds [13 x i64], ptr %33, i64 0, i64 %35
  %37 = load i64, ptr %36, align 8
  %38 = load i64, ptr %7, align 8
  %39 = icmp eq i64 %37, %38
  br i1 %39, label %40, label %152

40:                                               ; preds = %29
  %41 = load ptr, ptr %6, align 8
  %42 = getelementptr inbounds %struct.H5F_t, ptr %41, i32 0, i32 2
  %43 = load ptr, ptr %42, align 8
  %44 = getelementptr inbounds %struct.H5F_shared_t, ptr %43, i32 0, i32 56
  %45 = load i32, ptr %11, align 4
  %46 = zext i32 %45 to i64
  %47 = getelementptr inbounds [13 x ptr], ptr %44, i64 0, i64 %46
  %48 = load ptr, ptr %47, align 8
  %49 = icmp ne ptr %48, null
  br i1 %49, label %71, label %50

50:                                               ; preds = %40
  %51 = load ptr, ptr %6, align 8
  %52 = load i32, ptr %11, align 4
  %53 = call i32 @H5MF__open_fstype(ptr noundef %51, i32 noundef %52)
  %54 = icmp slt i32 %53, 0
  br i1 %54, label %55, label %70

55:                                               ; preds = %50
  br label %56

56:                                               ; preds = %55
  br label %57

57:                                               ; preds = %56
  br label %58

58:                                               ; preds = %57
  %59 = load i64, ptr @H5E_RESOURCE_g, align 8
  %60 = load i64, ptr @H5E_CANTINIT_g, align 8
  %61 = call i32 (ptr, ptr, i32, i64, i64, ptr, ...) @H5E_printf_stack(ptr noundef @.str, ptr noundef @__func__.H5MF_sects_debug, i32 noundef 154, i64 noundef %59, i64 noundef %60, ptr noundef @.str.1)
  br label %62

62:                                               ; preds = %58
  store i8 1, ptr %14, align 1
  %63 = load i8, ptr %14, align 1
  %64 = trunc i8 %63 to i1
  %65 = zext i1 %64 to i8
  store i8 %65, ptr %14, align 1
  br label %66

66:                                               ; preds = %62
  br label %67

67:                                               ; preds = %66
  store i32 -1, ptr %12, align 4
  br label %157

68:                                               ; No predecessors!
  br label %69

69:                                               ; preds = %68
  br label %70

70:                                               ; preds = %69, %50
  br label %71

71:                                               ; preds = %70, %40
  %72 = load ptr, ptr %6, align 8
  %73 = getelementptr inbounds %struct.H5F_t, ptr %72, i32 0, i32 2
  %74 = load ptr, ptr %73, align 8
  %75 = getelementptr inbounds %struct.H5F_shared_t, ptr %74, i32 0, i32 56
  %76 = load i32, ptr %11, align 4
  %77 = zext i32 %76 to i64
  %78 = getelementptr inbounds [13 x ptr], ptr %75, i64 0, i64 %77
  %79 = load ptr, ptr %78, align 8
  %80 = icmp ne ptr %79, null
  br i1 %80, label %81, label %151

81:                                               ; preds = %71
  %82 = load ptr, ptr %6, align 8
  %83 = getelementptr inbounds %struct.H5F_t, ptr %82, i32 0, i32 2
  %84 = load ptr, ptr %83, align 8
  %85 = getelementptr inbounds %struct.H5F_shared_t, ptr %84, i32 0, i32 56
  %86 = load i32, ptr %11, align 4
  %87 = zext i32 %86 to i64
  %88 = getelementptr inbounds [13 x ptr], ptr %85, i64 0, i64 %87
  %89 = load ptr, ptr %88, align 8
  %90 = getelementptr inbounds %struct.H5MF_debug_iter_ud_t, ptr %15, i32 0, i32 0
  store ptr %89, ptr %90, align 8
  %91 = load ptr, ptr %8, align 8
  %92 = getelementptr inbounds %struct.H5MF_debug_iter_ud_t, ptr %15, i32 0, i32 1
  store ptr %91, ptr %92, align 8
  %93 = load i32, ptr %9, align 4
  %94 = getelementptr inbounds %struct.H5MF_debug_iter_ud_t, ptr %15, i32 0, i32 2
  store i32 %93, ptr %94, align 8
  %95 = load i32, ptr %10, align 4
  %96 = getelementptr inbounds %struct.H5MF_debug_iter_ud_t, ptr %15, i32 0, i32 3
  store i32 %95, ptr %96, align 4
  %97 = load ptr, ptr %6, align 8
  %98 = load ptr, ptr %6, align 8
  %99 = getelementptr inbounds %struct.H5F_t, ptr %98, i32 0, i32 2
  %100 = load ptr, ptr %99, align 8
  %101 = getelementptr inbounds %struct.H5F_shared_t, ptr %100, i32 0, i32 56
  %102 = load i32, ptr %11, align 4
  %103 = zext i32 %102 to i64
  %104 = getelementptr inbounds [13 x ptr], ptr %101, i64 0, i64 %103
  %105 = load ptr, ptr %104, align 8
  %106 = call i32 @H5FS_sect_iterate(ptr noundef %97, ptr noundef %105, ptr noundef @H5MF__sects_debug_cb, ptr noundef %15)
  %107 = icmp slt i32 %106, 0
  br i1 %107, label %108, label %123

108:                                              ; preds = %81
  br label %109

109:                                              ; preds = %108
  br label %110

110:                                              ; preds = %109
  br label %111

111:                                              ; preds = %110
  %112 = load i64, ptr @H5E_HEAP_g, align 8
  %113 = load i64, ptr @H5E_BADITER_g, align 8
  %114 = call i32 (ptr, ptr, i32, i64, i64, ptr, ...) @H5E_printf_stack(ptr noundef @.str, ptr noundef @__func__.H5MF_sects_debug, i32 noundef 167, i64 noundef %112, i64 noundef %113, ptr noundef @.str.2)
  br label %115

115:                                              ; preds = %111
  store i8 1, ptr %14, align 1
  %116 = load i8, ptr %14, align 1
  %117 = trunc i8 %116 to i1
  %118 = zext i1 %117 to i8
  store i8 %118, ptr %14, align 1
  br label %119

119:                                              ; preds = %115
  br label %120

120:                                              ; preds = %119
  store i32 -1, ptr %12, align 4
  br label %157

121:                                              ; No predecessors!
  br label %122

122:                                              ; preds = %121
  br label %123

123:                                              ; preds = %122, %81
  %124 = load ptr, ptr %6, align 8
  %125 = load ptr, ptr %6, align 8
  %126 = getelementptr inbounds %struct.H5F_t, ptr %125, i32 0, i32 2
  %127 = load ptr, ptr %126, align 8
  %128 = getelementptr inbounds %struct.H5F_shared_t, ptr %127, i32 0, i32 56
  %129 = load i32, ptr %11, align 4
  %130 = zext i32 %129 to i64
  %131 = getelementptr inbounds [13 x ptr], ptr %128, i64 0, i64 %130
  %132 = load ptr, ptr %131, align 8
  %133 = call i32 @H5FS_close(ptr noundef %124, ptr noundef %132)
  %134 = icmp slt i32 %133, 0
  br i1 %134, label %135, label %150

135:                                              ; preds = %123
  br label %136

136:                                              ; preds = %135
  br label %137

137:                                              ; preds = %136
  br label %138

138:                                              ; preds = %137
  %139 = load i64, ptr @H5E_HEAP_g, align 8
  %140 = load i64, ptr @H5E_CANTRELEASE_g, align 8
  %141 = call i32 (ptr, ptr, i32, i64, i64, ptr, ...) @H5E_printf_stack(ptr noundef @.str, ptr noundef @__func__.H5MF_sects_debug, i32 noundef 171, i64 noundef %139, i64 noundef %140, ptr noundef @.str.3)
  br label %142

142:                                              ; preds = %138
  store i8 1, ptr %14, align 1
  %143 = load i8, ptr %14, align 1
  %144 = trunc i8 %143 to i1
  %145 = zext i1 %144 to i8
  store i8 %145, ptr %14, align 1
  br label %146

146:                                              ; preds = %142
  br label %147

147:                                              ; preds = %146
  store i32 -1, ptr %12, align 4
  br label %157

148:                                              ; No predecessors!
  br label %149

149:                                              ; preds = %148
  br label %150

150:                                              ; preds = %149, %123
  br label %151

151:                                              ; preds = %150, %71
  br label %156

152:                                              ; preds = %29, %19
  br label %153

153:                                              ; preds = %152
  %154 = load i32, ptr %11, align 4
  %155 = add i32 %154, 1
  store i32 %155, ptr %11, align 4
  br label %16

156:                                              ; preds = %151, %16
  br label %157

157:                                              ; preds = %156, %147, %120, %67
  %158 = load i64, ptr %13, align 8
  call void @H5AC_tag(i64 noundef %158, ptr noundef null)
  %159 = load i32, ptr %12, align 4
  ret i32 %159
}