; Function Attrs: nounwind uwtable
define range(i32 -1, 1) i32 @H5MF_sects_debug(ptr noundef %0, i64 noundef %1, ptr noundef %2, i32 noundef %3, i32 noundef %4) local_unnamed_addr #0 {
  %6 = alloca i64, align 8
  %7 = alloca %struct.H5MF_debug_iter_ud_t, align 8
  store i64 -1, ptr %6, align 8
  call void @H5AC_tag(i64 noundef 4, ptr noundef nonnull %6) #3
  %8 = getelementptr inbounds i8, ptr %0, i64 16
  %9 = load ptr, ptr %8, align 8
  %10 = getelementptr inbounds i8, ptr %9, i64 1616
  br label %11

11:                                               ; preds = %5, %49
  %indvars.iv = phi i64 [ 0, %5 ], [ %indvars.iv.next, %49 ]
  %12 = getelementptr inbounds [13 x i64], ptr %10, i64 0, i64 %indvars.iv
  %13 = load i64, ptr %12, align 8
  %.not = icmp ne i64 %13, -1
  %14 = icmp eq i64 %13, %1
  %or.cond = and i1 %.not, %14
  br i1 %or.cond, label %15, label %49

15:                                               ; preds = %11
  %16 = getelementptr inbounds i8, ptr %9, i64 1720
  %17 = getelementptr inbounds [13 x ptr], ptr %16, i64 0, i64 %indvars.iv
  %18 = load ptr, ptr %17, align 8
  %.not30 = icmp eq ptr %18, null
  br i1 %.not30, label %19, label %.thread

19:                                               ; preds = %15
  %20 = trunc nuw nsw i64 %indvars.iv to i32
  %21 = call i32 @H5MF__open_fstype(ptr noundef nonnull %0, i32 noundef %20) #3
  %22 = icmp slt i32 %21, 0
  br i1 %22, label %23, label %27

23:                                               ; preds = %19
  %24 = load i64, ptr @H5E_RESOURCE_g, align 8
  %25 = load i64, ptr @H5E_CANTINIT_g, align 8
  %26 = call i32 (ptr, ptr, i32, i64, i64, ptr, ...) @H5E_printf_stack(ptr noundef nonnull @.str, ptr noundef nonnull @__func__.H5MF_sects_debug, i32 noundef 154, i64 noundef %24, i64 noundef %25, ptr noundef nonnull @.str.1) #3
  br label %.loopexit

27:                                               ; preds = %19
  %.pre = load ptr, ptr %8, align 8
  %.phi.trans.insert = getelementptr inbounds i8, ptr %.pre, i64 1720
  %.phi.trans.insert39 = getelementptr inbounds [13 x ptr], ptr %.phi.trans.insert, i64 0, i64 %indvars.iv
  %.pre40 = load ptr, ptr %.phi.trans.insert39, align 8
  %.not31 = icmp eq ptr %.pre40, null
  br i1 %.not31, label %.loopexit, label %.thread

.thread:                                          ; preds = %15, %27
  %28 = phi ptr [ %.pre40, %27 ], [ %18, %15 ]
  store ptr %28, ptr %7, align 8
  %29 = getelementptr inbounds i8, ptr %7, i64 8
  store ptr %2, ptr %29, align 8
  %30 = getelementptr inbounds i8, ptr %7, i64 16
  store i32 %3, ptr %30, align 8
  %31 = getelementptr inbounds i8, ptr %7, i64 20
  store i32 %4, ptr %31, align 4
  %32 = call i32 @H5FS_sect_iterate(ptr noundef nonnull %0, ptr noundef nonnull %28, ptr noundef nonnull @H5MF__sects_debug_cb, ptr noundef nonnull %7) #3
  %33 = icmp slt i32 %32, 0
  br i1 %33, label %34, label %38

34:                                               ; preds = %.thread
  %35 = load i64, ptr @H5E_HEAP_g, align 8
  %36 = load i64, ptr @H5E_BADITER_g, align 8
  %37 = call i32 (ptr, ptr, i32, i64, i64, ptr, ...) @H5E_printf_stack(ptr noundef nonnull @.str, ptr noundef nonnull @__func__.H5MF_sects_debug, i32 noundef 167, i64 noundef %35, i64 noundef %36, ptr noundef nonnull @.str.2) #3
  br label %.loopexit

38:                                               ; preds = %.thread
  %39 = load ptr, ptr %8, align 8
  %40 = getelementptr inbounds i8, ptr %39, i64 1720
  %41 = getelementptr inbounds [13 x ptr], ptr %40, i64 0, i64 %indvars.iv
  %42 = load ptr, ptr %41, align 8
  %43 = call i32 @H5FS_close(ptr noundef nonnull %0, ptr noundef %42) #3
  %44 = icmp slt i32 %43, 0
  br i1 %44, label %45, label %.loopexit

45:                                               ; preds = %38
  %46 = load i64, ptr @H5E_HEAP_g, align 8
  %47 = load i64, ptr @H5E_CANTRELEASE_g, align 8
  %48 = call i32 (ptr, ptr, i32, i64, i64, ptr, ...) @H5E_printf_stack(ptr noundef nonnull @.str, ptr noundef nonnull @__func__.H5MF_sects_debug, i32 noundef 171, i64 noundef %46, i64 noundef %47, ptr noundef nonnull @.str.3) #3
  br label %.loopexit

49:                                               ; preds = %11
  %indvars.iv.next = add nuw nsw i64 %indvars.iv, 1
  %exitcond.not = icmp eq i64 %indvars.iv.next, 13
  br i1 %exitcond.not, label %.loopexit, label %11

.loopexit:                                        ; preds = %49, %38, %27, %45, %34, %23
  %.0 = phi i32 [ -1, %34 ], [ -1, %45 ], [ 0, %38 ], [ 0, %27 ], [ -1, %23 ], [ 0, %49 ]
  %50 = load i64, ptr %6, align 8
  call void @H5AC_tag(i64 noundef %50, ptr noundef null) #3
  ret i32 %.0
}